; Function Attrs: mustprogress nounwind uwtable
define dso_local void @_ZN4llvm9MemoryUse8deleteMeEPNS_11DerivedUserE(ptr noundef %0) #0 align 2 {
  %2 = icmp eq ptr %0, null
  br i1 %2, label %4, label %3

3:                                                ; preds = %1
  tail call void @_ZN4llvm5ValueD2Ev(ptr noundef nonnull align 8 dereferenceable(24) %0) #25
  tail call void @_ZN4llvm4UserdlEPv(ptr noundef nonnull %0) #25
  br label %4

4:                                                ; preds = %3, %1
  ret void
}